target datalayout = "e-m:e-p270:32:32-p271:32:32-p272:64:64-i64:64-i128:128-f80:128-n8:16:32:64-S128"
target triple = "x86_64-pc-linux-gnu"

%struct.optstruct = type { ptr, ptr, ptr, i64, i32, i32, i32, i32, ptr, ptr, ptr }

@.str.30 = private unnamed_addr constant [10 x i8] c"test-sigs\00", align 1
@.str.207 = private unnamed_addr constant [3 x i8] c"rb\00", align 1
@.str.480 = private unnamed_addr constant [36 x i8] c"--test-sigs requires two arguments\0A\00", align 1
@.str.481 = private unnamed_addr constant [30 x i8] c"testsigs: Can't open file %s\0A\00", align 1

; Function Attrs: nounwind uwtable
define internal i32 @testsigs(ptr noundef %0) #0 {
  %2 = alloca i32, align 4
  %3 = alloca ptr, align 8
  %4 = alloca [32769 x i8], align 16
  %5 = alloca ptr, align 8
  %6 = alloca i32, align 4
  %7 = alloca i32, align 4
  store ptr %0, ptr %3, align 8
  store i32 0, ptr %6, align 4
  %8 = load ptr, ptr %3, align 8
  %9 = getelementptr inbounds %struct.optstruct, ptr %8, i32 0, i32 10
  %10 = load ptr, ptr %9, align 8
  %11 = icmp ne ptr %10, null
  br i1 %11, label %13, label %12

12:                                               ; preds = %1
  call void (i32, ptr, ...) @mprintf(i32 noundef 5, ptr noundef @.str.480)
  store i32 -1, ptr %2, align 4
  br label %68

13:                                               ; preds = %1
  %14 = load ptr, ptr %3, align 8
  %15 = call ptr @optget(ptr noundef %14, ptr noundef @.str.30)
  %16 = getelementptr inbounds %struct.optstruct, ptr %15, i32 0, i32 2
  %17 = load ptr, ptr %16, align 8
  %18 = call noalias ptr @fopen(ptr noundef %17, ptr noundef @.str.207)
  store ptr %18, ptr %5, align 8
  %19 = load ptr, ptr %5, align 8
  %20 = icmp ne ptr %19, null
  br i1 %20, label %26, label %21

21:                                               ; preds = %13
  %22 = load ptr, ptr %3, align 8
  %23 = call ptr @optget(ptr noundef %22, ptr noundef @.str.30)
  %24 = getelementptr inbounds %struct.optstruct, ptr %23, i32 0, i32 2
  %25 = load ptr, ptr %24, align 8
  call void (i32, ptr, ...) @mprintf(i32 noundef 5, ptr noundef @.str.481, ptr noundef %25)
  store i32 -1, ptr %2, align 4
  br label %68

26:                                               ; preds = %13
  %27 = load ptr, ptr %3, align 8
  %28 = getelementptr inbounds %struct.optstruct, ptr %27, i32 0, i32 10
  %29 = load ptr, ptr %28, align 8
  %30 = getelementptr inbounds ptr, ptr %29, i64 0
  %31 = load ptr, ptr %30, align 8
  %32 = call i32 (ptr, i32, ...) @open(ptr noundef %31, i32 noundef 0)
  store i32 %32, ptr %7, align 4
  %33 = load i32, ptr %7, align 4
  %34 = icmp eq i32 %33, -1
  br i1 %34, label %35, label %42

35:                                               ; preds = %26
  %36 = load ptr, ptr %3, align 8
  %37 = call ptr @optget(ptr noundef %36, ptr noundef @.str.30)
  %38 = getelementptr inbounds %struct.optstruct, ptr %37, i32 0, i32 2
  %39 = load ptr, ptr %38, align 8
  call void (i32, ptr, ...) @mprintf(i32 noundef 5, ptr noundef @.str.481, ptr noundef %39)
  %40 = load ptr, ptr %5, align 8
  %41 = call i32 @fclose(ptr noundef %40)
  store i32 -1, ptr %2, align 4
  br label %68

42:                                               ; preds = %26
  br label %43

43:                                               ; preds = %61, %42
  %44 = getelementptr inbounds [32769 x i8], ptr %4, i64 0, i64 0
  %45 = load ptr, ptr %5, align 8
  %46 = call ptr @fgets(ptr noundef %44, i32 noundef 32769, ptr noundef %45)
  %47 = icmp ne ptr %46, null
  br i1 %47, label %48, label %62

48:                                               ; preds = %43
  %49 = getelementptr inbounds [32769 x i8], ptr %4, i64 0, i64 0
  %50 = call i32 @cli_chomp(ptr noundef %49)
  %51 = getelementptr inbounds [32769 x i8], ptr %4, i64 0, i64 0
  %52 = call i64 @strlen(ptr noundef %51) #14
  %53 = icmp ne i64 %52, 0
  br i1 %53, label %55, label %54

54:                                               ; preds = %48
  br label %62

55:                                               ; preds = %48
  %56 = getelementptr inbounds [32769 x i8], ptr %4, i64 0, i64 0
  %57 = load i32, ptr %7, align 4
  %58 = call i32 @decodesig(ptr noundef %56, i32 noundef %57)
  %59 = icmp eq i32 %58, -1
  br i1 %59, label %60, label %61

60:                                               ; preds = %55
  store i32 -1, ptr %6, align 4
  br label %62

61:                                               ; preds = %55
  br label %43

62:                                               ; preds = %60, %54, %43
  %63 = load i32, ptr %7, align 4
  %64 = call i32 @close(i32 noundef %63)
  %65 = load ptr, ptr %5, align 8
  %66 = call i32 @fclose(ptr noundef %65)
  %67 = load i32, ptr %6, align 4
  store i32 %67, ptr %2, align 4
  br label %68

68:                                               ; preds = %62, %35, %21, %12
  %69 = load i32, ptr %2, align 4
  ret i32 %69
}