; Function Attrs: nounwind uwtable
define internal fastcc noundef i32 @testsigs(ptr noundef %0) unnamed_addr #0 {
  %2 = alloca [32769 x i8], align 16
  %3 = getelementptr inbounds i8, ptr %0, i64 64
  %4 = load ptr, ptr %3, align 8
  %.not = icmp eq ptr %4, null
  br i1 %.not, label %5, label %6

5:                                                ; preds = %1
  tail call void (i32, ptr, ...) @mprintf(i32 noundef 5, ptr noundef nonnull @.str.480) #25
  br label %34

6:                                                ; preds = %1
  %7 = tail call ptr @optget(ptr noundef nonnull %0, ptr noundef nonnull @.str.30) #25
  %8 = getelementptr inbounds i8, ptr %7, i64 16
  %9 = load ptr, ptr %8, align 8
  %10 = tail call noalias ptr @fopen(ptr noundef %9, ptr noundef nonnull @.str.207)
  %.not15 = icmp eq ptr %10, null
  br i1 %.not15, label %11, label %15

11:                                               ; preds = %6
  %12 = tail call ptr @optget(ptr noundef nonnull %0, ptr noundef nonnull @.str.30) #25
  %13 = getelementptr inbounds i8, ptr %12, i64 16
  %14 = load ptr, ptr %13, align 8
  tail call void (i32, ptr, ...) @mprintf(i32 noundef 5, ptr noundef nonnull @.str.481, ptr noundef %14) #25
  br label %34

15:                                               ; preds = %6
  %16 = load ptr, ptr %3, align 8
  %17 = load ptr, ptr %16, align 8
  %18 = tail call i32 (ptr, i32, ...) @open(ptr noundef %17, i32 noundef 0) #25
  %19 = icmp eq i32 %18, -1
  br i1 %19, label %20, label %.preheader

20:                                               ; preds = %15
  %21 = tail call ptr @optget(ptr noundef nonnull %0, ptr noundef nonnull @.str.30) #25
  %22 = getelementptr inbounds i8, ptr %21, i64 16
  %23 = load ptr, ptr %22, align 8
  tail call void (i32, ptr, ...) @mprintf(i32 noundef 5, ptr noundef nonnull @.str.481, ptr noundef %23) #25
  %24 = tail call i32 @fclose(ptr noundef nonnull %10)
  br label %34

.preheader:                                       ; preds = %15, %28
  %25 = call ptr @fgets(ptr noundef nonnull %2, i32 noundef 32769, ptr noundef nonnull %10)
  %.not16 = icmp eq ptr %25, null
  br i1 %.not16, label %31, label %26

26:                                               ; preds = %.preheader
  %27 = call i32 @cli_chomp(ptr noundef nonnull %2) #25
  %char0 = load i8, ptr %2, align 16
  %.not17 = icmp eq i8 %char0, 0
  br i1 %.not17, label %31, label %28

28:                                               ; preds = %26
  %29 = call fastcc i32 @decodesig(ptr noundef nonnull %2, i32 noundef %18), !range !5
  %30 = icmp eq i32 %29, -1
  br i1 %30, label %31, label %.preheader

31:                                               ; preds = %28, %26, %.preheader
  %.013 = phi i32 [ 0, %26 ], [ 0, %.preheader ], [ -1, %28 ]
  %32 = call i32 @close(i32 noundef %18) #25
  %33 = call i32 @fclose(ptr noundef nonnull %10)
  br label %34

34:                                               ; preds = %31, %20, %11, %5
  %.0 = phi i32 [ -1, %20 ], [ %.013, %31 ], [ -1, %11 ], [ -1, %5 ]
  ret i32 %.0
}